target datalayout = "e-m:e-p270:32:32-p271:32:32-p272:64:64-i64:64-i128:128-f80:128-n8:16:32:64-S128"
target triple = "x86_64-unknown-linux-gnu"

%class.escaped = type { ptr, i8, i32 }
%class.tactic_exception = type { %class.z3_exception, %"class.std::__cxx11::basic_string" }
%class.z3_exception = type { ptr }
%"class.std::__cxx11::basic_string" = type { %"struct.std::__cxx11::basic_string<char>::_Alloc_hider", i64, %union.anon }
%"struct.std::__cxx11::basic_string<char>::_Alloc_hider" = type { ptr }
%union.anon = type { i64, [8 x i8] }

@_ZTI16tactic_exception = linkonce_odr hidden constant { ptr, ptr, ptr } { ptr getelementptr inbounds (ptr, ptr @_ZTVN10__cxxabiv120__si_class_type_infoE, i64 2), ptr @_ZTS16tactic_exception, ptr @_ZTI12z3_exception }, comdat, align 8
@.str.3 = private unnamed_addr constant [20 x i8] c"(tactic-exception \22\00", align 1
@.str.4 = private unnamed_addr constant [4 x i8] c"\22)\0A\00", align 1
@_ZTV12z3_exception = external unnamed_addr constant { [6 x ptr] }, align 8
@_ZTV16tactic_exception = linkonce_odr hidden unnamed_addr constant { [6 x ptr] } { [6 x ptr] [ptr null, ptr @_ZTI16tactic_exception, ptr @_ZN16tactic_exceptionD2Ev, ptr @_ZN16tactic_exceptionD0Ev, ptr @_ZNK16tactic_exception3msgEv, ptr @_ZNK12z3_exception10error_codeEv] }, comdat, align 8

; Function Attrs: mustprogress nounwind uwtable
define linkonce_odr hidden void @_ZN12z3_exceptionD2Ev(ptr noundef nonnull align 8 dereferenceable(8) %this) unnamed_addr #5 comdat align 2 {
entry:
  %this.addr = alloca ptr, align 8
  store ptr %this, ptr %this.addr, align 8
  ret void
}

; Function Attrs: mustprogress nounwind uwtable
define linkonce_odr hidden void @_ZN12z3_exceptionC2ERKS_(ptr noundef nonnull align 8 dereferenceable(8) %this, ptr noundef nonnull align 8 dereferenceable(8) %0) unnamed_addr #5 comdat align 2 {
entry:
  %this.addr = alloca ptr, align 8
  %.addr = alloca ptr, align 8
  store ptr %this, ptr %this.addr, align 8
  store ptr %0, ptr %.addr, align 8
  %this1 = load ptr, ptr %this.addr, align 8
  store ptr getelementptr inbounds ({ [6 x ptr] }, ptr @_ZTV12z3_exception, i32 0, i32 0, i32 2), ptr %this1, align 8
  ret void
}

; Function Attrs: mustprogress uwtable
define linkonce_odr hidden void @_ZN16tactic_exceptionC2ERKS_(ptr noundef nonnull align 8 dereferenceable(40) %this, ptr noundef nonnull align 8 dereferenceable(40) %0) unnamed_addr #4 comdat align 2 personality ptr @__gxx_personality_v0 {
entry:
  %this.addr = alloca ptr, align 8
  %.addr = alloca ptr, align 8
  %exn.slot = alloca ptr, align 8
  %ehselector.slot = alloca i32, align 4
  store ptr %this, ptr %this.addr, align 8
  store ptr %0, ptr %.addr, align 8
  %this1 = load ptr, ptr %this.addr, align 8
  %1 = load ptr, ptr %.addr, align 8
  call void @_ZN12z3_exceptionC2ERKS_(ptr noundef nonnull align 8 dereferenceable(8) %this1, ptr noundef nonnull align 8 dereferenceable(8) %1) #3
  store ptr getelementptr inbounds ({ [6 x ptr] }, ptr @_ZTV16tactic_exception, i32 0, i32 0, i32 2), ptr %this1, align 8
  %m_msg = getelementptr inbounds %class.tactic_exception, ptr %this1, i32 0, i32 1
  %2 = load ptr, ptr %.addr, align 8
  %m_msg2 = getelementptr inbounds %class.tactic_exception, ptr %2, i32 0, i32 1
  invoke void @_ZNSt7__cxx1112basic_stringIcSt11char_traitsIcESaIcEEC1ERKS4_(ptr noundef nonnull align 8 dereferenceable(32) %m_msg, ptr noundef nonnull align 8 dereferenceable(32) %m_msg2)
          to label %invoke.cont unwind label %lpad

invoke.cont:                                      ; preds = %entry
  ret void

lpad:                                             ; preds = %entry
  %3 = landingpad { ptr, i32 }
          cleanup
  %4 = extractvalue { ptr, i32 } %3, 0
  store ptr %4, ptr %exn.slot, align 8
  %5 = extractvalue { ptr, i32 } %3, 1
  store i32 %5, ptr %ehselector.slot, align 4
  call void @_ZN12z3_exceptionD2Ev(ptr noundef nonnull align 8 dereferenceable(8) %this1) #3
  br label %eh.resume

eh.resume:                                        ; preds = %lpad
  %exn = load ptr, ptr %exn.slot, align 8
  %sel = load i32, ptr %ehselector.slot, align 4
  %lpad.val = insertvalue { ptr, i32 } poison, ptr %exn, 0
  %lpad.val3 = insertvalue { ptr, i32 } %lpad.val, i32 %sel, 1
  resume { ptr, i32 } %lpad.val3
}

; Function Attrs: mustprogress uwtable
define linkonce_odr hidden noundef nonnull align 8 dereferenceable(8) ptr @_ZlsRSoRK7escaped(ptr noundef nonnull align 8 dereferenceable(8) %out, ptr noundef nonnull align 8 dereferenceable(16) %s) #4 comdat {
entry:
  %out.addr = alloca ptr, align 8
  %s.addr = alloca ptr, align 8
  store ptr %out, ptr %out.addr, align 8
  store ptr %s, ptr %s.addr, align 8
  %0 = load ptr, ptr %s.addr, align 8
  %1 = load ptr, ptr %out.addr, align 8
  call void @_ZNK7escaped7displayERSo(ptr noundef nonnull align 8 dereferenceable(16) %0, ptr noundef nonnull align 8 dereferenceable(8) %1)
  %2 = load ptr, ptr %out.addr, align 8
  ret ptr %2
}

; Function Attrs: mustprogress nounwind uwtable
define linkonce_odr hidden void @_ZN7escapedC2EPKcbj(ptr noundef nonnull align 8 dereferenceable(16) %this, ptr noundef %str, i1 noundef zeroext %trim_nl, i32 noundef %indent) unnamed_addr #5 comdat align 2 {
entry:
  %this.addr = alloca ptr, align 8
  %str.addr = alloca ptr, align 8
  %trim_nl.addr = alloca i8, align 1
  %indent.addr = alloca i32, align 4
  store ptr %this, ptr %this.addr, align 8
  store ptr %str, ptr %str.addr, align 8
  %frombool = zext i1 %trim_nl to i8
  store i8 %frombool, ptr %trim_nl.addr, align 1
  store i32 %indent, ptr %indent.addr, align 4
  %this1 = load ptr, ptr %this.addr, align 8
  %m_str = getelementptr inbounds %class.escaped, ptr %this1, i32 0, i32 0
  %0 = load ptr, ptr %str.addr, align 8
  store ptr %0, ptr %m_str, align 8
  %m_trim_nl = getelementptr inbounds %class.escaped, ptr %this1, i32 0, i32 1
  %1 = load i8, ptr %trim_nl.addr, align 1
  %tobool = trunc i8 %1 to i1
  %frombool2 = zext i1 %tobool to i8
  store i8 %frombool2, ptr %m_trim_nl, align 8
  %m_indent = getelementptr inbounds %class.escaped, ptr %this1, i32 0, i32 2
  %2 = load i32, ptr %indent.addr, align 4
  store i32 %2, ptr %m_indent, align 4
  ret void
}

; Function Attrs: mustprogress uwtable
define hidden void @_Z4execR6tacticRK3refI4goalER11sref_bufferIS2_Lj16EE(ptr noundef nonnull align 8 dereferenceable(12) %t, ptr noundef nonnull align 8 dereferenceable(8) %in, ptr noundef nonnull align 8 dereferenceable(144) %result) #4 personality ptr @__gxx_personality_v0 {
entry:
  %t.addr = alloca ptr, align 8
  %in.addr = alloca ptr, align 8
  %result.addr = alloca ptr, align 8
  %exn.slot = alloca ptr, align 8
  %ehselector.slot = alloca i32, align 4
  %ex = alloca ptr, align 8
  %ref.tmp = alloca %class.escaped, align 8
  %ref.tmp30 = alloca %class.escaped, align 8
  store ptr %t, ptr %t.addr, align 8
  store ptr %in, ptr %in.addr, align 8
  store ptr %result, ptr %result.addr, align 8
  %0 = load ptr, ptr %t.addr, align 8
  %vtable = load ptr, ptr %0, align 8
  %vfn = getelementptr inbounds ptr, ptr %vtable, i64 16
  %1 = load ptr, ptr %vfn, align 8
  call void %1(ptr noundef nonnull align 8 dereferenceable(12) %0)
  %2 = load ptr, ptr %t.addr, align 8
  %3 = load ptr, ptr %in.addr, align 8
  %4 = load ptr, ptr %result.addr, align 8
  %vtable1 = load ptr, ptr %2, align 8
  %vfn2 = getelementptr inbounds ptr, ptr %vtable1, i64 14
  %5 = load ptr, ptr %vfn2, align 8
  invoke void %5(ptr noundef nonnull align 8 dereferenceable(12) %2, ptr noundef nonnull align 8 dereferenceable(8) %3, ptr noundef nonnull align 8 dereferenceable(144) %4)
          to label %invoke.cont unwind label %lpad

invoke.cont:                                      ; preds = %entry
  %6 = load ptr, ptr %t.addr, align 8
  %vtable3 = load ptr, ptr %6, align 8
  %vfn4 = getelementptr inbounds ptr, ptr %vtable3, i64 17
  %7 = load ptr, ptr %vfn4, align 8
  invoke void %7(ptr noundef nonnull align 8 dereferenceable(12) %6)
          to label %invoke.cont5 unwind label %lpad

invoke.cont5:                                     ; preds = %invoke.cont
  br label %try.cont

lpad:                                             ; preds = %invoke.cont, %entry
  %8 = landingpad { ptr, i32 }
          catch ptr @_ZTI16tactic_exception
  %9 = extractvalue { ptr, i32 } %8, 0
  store ptr %9, ptr %exn.slot, align 8
  %10 = extractvalue { ptr, i32 } %8, 1
  store i32 %10, ptr %ehselector.slot, align 4
  br label %catch.dispatch

catch.dispatch:                                   ; preds = %lpad
  %sel = load i32, ptr %ehselector.slot, align 4
  %11 = call i32 @llvm.eh.typeid.for(ptr @_ZTI16tactic_exception) #3
  %matches = icmp eq i32 %sel, %11
  br i1 %matches, label %catch, label %eh.resume

catch:                                            ; preds = %catch.dispatch
  %exn = load ptr, ptr %exn.slot, align 8
  %12 = call ptr @__cxa_begin_catch(ptr %exn) #3
  store ptr %12, ptr %ex, align 8
  %call = invoke noundef i32 @_Z19get_verbosity_levelv()
          to label %invoke.cont7 unwind label %lpad6

invoke.cont7:                                     ; preds = %catch
  %cmp = icmp uge i32 %call, 10
  br i1 %cmp, label %if.then, label %if.end40

if.then:                                          ; preds = %invoke.cont7
  %call9 = invoke noundef zeroext i1 @_Z11is_threadedv()
          to label %invoke.cont8 unwind label %lpad6

invoke.cont8:                                     ; preds = %if.then
  br i1 %call9, label %if.then10, label %if.else

if.then10:                                        ; preds = %invoke.cont8
  invoke void @_Z12verbose_lockv()
          to label %invoke.cont11 unwind label %lpad6

invoke.cont11:                                    ; preds = %if.then10
  %call13 = invoke noundef nonnull align 8 dereferenceable(8) ptr @_Z14verbose_streamv()
          to label %invoke.cont12 unwind label %lpad6

invoke.cont12:                                    ; preds = %invoke.cont11
  %call15 = invoke noundef nonnull align 8 dereferenceable(8) ptr @_ZStlsISt11char_traitsIcEERSt13basic_ostreamIcT_ES5_PKc(ptr noundef nonnull align 8 dereferenceable(8) %call13, ptr noundef @.str.3)
          to label %invoke.cont14 unwind label %lpad6

invoke.cont14:                                    ; preds = %invoke.cont12
  %13 = load ptr, ptr %ex, align 8
  %vtable16 = load ptr, ptr %13, align 8
  %vfn17 = getelementptr inbounds ptr, ptr %vtable16, i64 2
  %14 = load ptr, ptr %vfn17, align 8
  %call19 = invoke noundef ptr %14(ptr noundef nonnull align 8 dereferenceable(40) %13)
          to label %invoke.cont18 unwind label %lpad6

invoke.cont18:                                    ; preds = %invoke.cont14
  invoke void @_ZN7escapedC2EPKcbj(ptr noundef nonnull align 8 dereferenceable(16) %ref.tmp, ptr noundef %call19, i1 noundef zeroext false, i32 noundef 0)
          to label %invoke.cont20 unwind label %lpad6

invoke.cont20:                                    ; preds = %invoke.cont18
  %call22 = invoke noundef nonnull align 8 dereferenceable(8) ptr @_ZlsRSoRK7escaped(ptr noundef nonnull align 8 dereferenceable(8) %call15, ptr noundef nonnull align 8 dereferenceable(16) %ref.tmp)
          to label %invoke.cont21 unwind label %lpad6

invoke.cont21:                                    ; preds = %invoke.cont20
  %call24 = invoke noundef nonnull align 8 dereferenceable(8) ptr @_ZStlsISt11char_traitsIcEERSt13basic_ostreamIcT_ES5_PKc(ptr noundef nonnull align 8 dereferenceable(8) %call22, ptr noundef @.str.4)
          to label %invoke.cont23 unwind label %lpad6

invoke.cont23:                                    ; preds = %invoke.cont21
  invoke void @_Z14verbose_unlockv()
          to label %invoke.cont25 unwind label %lpad6

invoke.cont25:                                    ; preds = %invoke.cont23
  br label %if.end

lpad6:                                            ; preds = %invoke.cont45, %if.end40, %invoke.cont36, %invoke.cont35, %invoke.cont33, %invoke.cont28, %invoke.cont26, %if.else, %invoke.cont23, %invoke.cont21, %invoke.cont20, %invoke.cont18, %invoke.cont14, %invoke.cont12, %invoke.cont11, %if.then10, %if.then, %catch
  %15 = landingpad { ptr, i32 }
          cleanup
  %16 = extractvalue { ptr, i32 } %15, 0
  store ptr %16, ptr %exn.slot, align 8
  %17 = extractvalue { ptr, i32 } %15, 1
  store i32 %17, ptr %ehselector.slot, align 4
  br label %ehcleanup

if.else:                                          ; preds = %invoke.cont8
  %call27 = invoke noundef nonnull align 8 dereferenceable(8) ptr @_Z14verbose_streamv()
          to label %invoke.cont26 unwind label %lpad6

invoke.cont26:                                    ; preds = %if.else
  %call29 = invoke noundef nonnull align 8 dereferenceable(8) ptr @_ZStlsISt11char_traitsIcEERSt13basic_ostreamIcT_ES5_PKc(ptr noundef nonnull align 8 dereferenceable(8) %call27, ptr noundef @.str.3)
          to label %invoke.cont28 unwind label %lpad6

invoke.cont28:                                    ; preds = %invoke.cont26
  %18 = load ptr, ptr %ex, align 8
  %vtable31 = load ptr, ptr %18, align 8
  %vfn32 = getelementptr inbounds ptr, ptr %vtable31, i64 2
  %19 = load ptr, ptr %vfn32, align 8
  %call34 = invoke noundef ptr %19(ptr noundef nonnull align 8 dereferenceable(40) %18)
          to label %invoke.cont33 unwind label %lpad6

invoke.cont33:                                    ; preds = %invoke.cont28
  invoke void @_ZN7escapedC2EPKcbj(ptr noundef nonnull align 8 dereferenceable(16) %ref.tmp30, ptr noundef %call34, i1 noundef zeroext false, i32 noundef 0)
          to label %invoke.cont35 unwind label %lpad6

invoke.cont35:                                    ; preds = %invoke.cont33
  %call37 = invoke noundef nonnull align 8 dereferenceable(8) ptr @_ZlsRSoRK7escaped(ptr noundef nonnull align 8 dereferenceable(8) %call29, ptr noundef nonnull align 8 dereferenceable(16) %ref.tmp30)
          to label %invoke.cont36 unwind label %lpad6

invoke.cont36:                                    ; preds = %invoke.cont35
  %call39 = invoke noundef nonnull align 8 dereferenceable(8) ptr @_ZStlsISt11char_traitsIcEERSt13basic_ostreamIcT_ES5_PKc(ptr noundef nonnull align 8 dereferenceable(8) %call37, ptr noundef @.str.4)
          to label %invoke.cont38 unwind label %lpad6

invoke.cont38:                                    ; preds = %invoke.cont36
  br label %if.end

if.end:                                           ; preds = %invoke.cont38, %invoke.cont25
  br label %if.end40

if.end40:                                         ; preds = %if.end, %invoke.cont7
  %20 = load ptr, ptr %t.addr, align 8
  %vtable41 = load ptr, ptr %20, align 8
  %vfn42 = getelementptr inbounds ptr, ptr %vtable41, i64 17
  %21 = load ptr, ptr %vfn42, align 8
  invoke void %21(ptr noundef nonnull align 8 dereferenceable(12) %20)
          to label %invoke.cont43 unwind label %lpad6

invoke.cont43:                                    ; preds = %if.end40
  %exception = call ptr @__cxa_allocate_exception(i64 40) #3
  %22 = load ptr, ptr %ex, align 8
  invoke void @_ZN16tactic_exceptionC2ERKS_(ptr noundef nonnull align 8 dereferenceable(40) %exception, ptr noundef nonnull align 8 dereferenceable(40) %22)
          to label %invoke.cont45 unwind label %lpad44

invoke.cont45:                                    ; preds = %invoke.cont43
  invoke void @__cxa_throw(ptr %exception, ptr @_ZTI16tactic_exception, ptr @_ZN16tactic_exceptionD2Ev) #15
          to label %unreachable unwind label %lpad6

lpad44:                                           ; preds = %invoke.cont43
  %23 = landingpad { ptr, i32 }
          cleanup
  %24 = extractvalue { ptr, i32 } %23, 0
  store ptr %24, ptr %exn.slot, align 8
  %25 = extractvalue { ptr, i32 } %23, 1
  store i32 %25, ptr %ehselector.slot, align 4
  call void @__cxa_free_exception(ptr %exception) #3
  br label %ehcleanup

ehcleanup:                                        ; preds = %lpad44, %lpad6
  invoke void @__cxa_end_catch()
          to label %invoke.cont46 unwind label %terminate.lpad

invoke.cont46:                                    ; preds = %ehcleanup
  br label %eh.resume

try.cont:                                         ; preds = %invoke.cont5
  ret void

eh.resume:                                        ; preds = %invoke.cont46, %catch.dispatch
  %exn47 = load ptr, ptr %exn.slot, align 8
  %sel48 = load i32, ptr %ehselector.slot, align 4
  %lpad.val = insertvalue { ptr, i32 } poison, ptr %exn47, 0
  %lpad.val49 = insertvalue { ptr, i32 } %lpad.val, i32 %sel48, 1
  resume { ptr, i32 } %lpad.val49

terminate.lpad:                                   ; preds = %ehcleanup
  %26 = landingpad { ptr, i32 }
          catch ptr null
  %27 = extractvalue { ptr, i32 } %26, 0
  call void @__clang_call_terminate(ptr %27) #14
  unreachable

unreachable:                                      ; preds = %invoke.cont45
  unreachable
}