; Function Attrs: mustprogress uwtable
define hidden void @_Z4execR6tacticRK3refI4goalER11sref_bufferIS2_Lj16EE(ptr noundef nonnull align 8 dereferenceable(12) %t, ptr noundef nonnull align 8 dereferenceable(8) %in, ptr noundef nonnull align 8 dereferenceable(144) %result) local_unnamed_addr #3 personality ptr @__gxx_personality_v0 {
entry:
  %ref.tmp = alloca %class.escaped, align 8
  %ref.tmp30 = alloca %class.escaped, align 8
  %vtable = load ptr, ptr %t, align 8
  %vfn = getelementptr inbounds i8, ptr %vtable, i64 128
  %0 = load ptr, ptr %vfn, align 8
  tail call void %0(ptr noundef nonnull align 8 dereferenceable(12) %t)
  %vtable1 = load ptr, ptr %t, align 8
  %vfn2 = getelementptr inbounds i8, ptr %vtable1, i64 112
  %1 = load ptr, ptr %vfn2, align 8
  invoke void %1(ptr noundef nonnull align 8 dereferenceable(12) %t, ptr noundef nonnull align 8 dereferenceable(8) %in, ptr noundef nonnull align 8 dereferenceable(144) %result)
          to label %invoke.cont unwind label %lpad

invoke.cont:                                      ; preds = %entry
  %vtable3 = load ptr, ptr %t, align 8
  %vfn4 = getelementptr inbounds i8, ptr %vtable3, i64 136
  %2 = load ptr, ptr %vfn4, align 8
  invoke void %2(ptr noundef nonnull align 8 dereferenceable(12) %t)
          to label %try.cont unwind label %lpad

lpad:                                             ; preds = %invoke.cont, %entry
  %3 = landingpad { ptr, i32 }
          catch ptr @_ZTI16tactic_exception
  %4 = extractvalue { ptr, i32 } %3, 1
  %5 = tail call i32 @llvm.eh.typeid.for(ptr nonnull @_ZTI16tactic_exception) #14
  %matches = icmp eq i32 %4, %5
  br i1 %matches, label %catch, label %eh.resume

catch:                                            ; preds = %lpad
  %6 = extractvalue { ptr, i32 } %3, 0
  %7 = tail call ptr @__cxa_begin_catch(ptr %6) #14
  %call = invoke noundef i32 @_Z19get_verbosity_levelv()
          to label %invoke.cont7 unwind label %lpad6

invoke.cont7:                                     ; preds = %catch
  %cmp = icmp ugt i32 %call, 9
  br i1 %cmp, label %if.then, label %if.end40

if.then:                                          ; preds = %invoke.cont7
  %call9 = invoke noundef zeroext i1 @_Z11is_threadedv()
          to label %invoke.cont8 unwind label %lpad6

invoke.cont8:                                     ; preds = %if.then
  br i1 %call9, label %if.then10, label %if.else

if.then10:                                        ; preds = %invoke.cont8
  invoke void @_Z12verbose_lockv()
          to label %invoke.cont11 unwind label %lpad6

invoke.cont11:                                    ; preds = %if.then10
  %call13 = invoke noundef nonnull align 8 dereferenceable(8) ptr @_Z14verbose_streamv()
          to label %invoke.cont12 unwind label %lpad6

invoke.cont12:                                    ; preds = %invoke.cont11
  %call15 = invoke noundef nonnull align 8 dereferenceable(8) ptr @_ZStlsISt11char_traitsIcEERSt13basic_ostreamIcT_ES5_PKc(ptr noundef nonnull align 8 dereferenceable(8) %call13, ptr noundef nonnull @.str.3)
          to label %invoke.cont14 unwind label %lpad6

invoke.cont14:                                    ; preds = %invoke.cont12
  %vtable16 = load ptr, ptr %7, align 8
  %vfn17 = getelementptr inbounds i8, ptr %vtable16, i64 16
  %8 = load ptr, ptr %vfn17, align 8
  %call19 = invoke noundef ptr %8(ptr noundef nonnull align 8 dereferenceable(40) %7)
          to label %invoke.cont18 unwind label %lpad6

invoke.cont18:                                    ; preds = %invoke.cont14
  store ptr %call19, ptr %ref.tmp, align 8
  %m_trim_nl.i = getelementptr inbounds i8, ptr %ref.tmp, i64 8
  store i8 0, ptr %m_trim_nl.i, align 8
  %m_indent.i = getelementptr inbounds i8, ptr %ref.tmp, i64 12
  store i32 0, ptr %m_indent.i, align 4
  invoke void @_ZNK7escaped7displayERSo(ptr noundef nonnull align 8 dereferenceable(16) %ref.tmp, ptr noundef nonnull align 8 dereferenceable(8) %call15)
          to label %invoke.cont21 unwind label %lpad6

invoke.cont21:                                    ; preds = %invoke.cont18
  %call24 = invoke noundef nonnull align 8 dereferenceable(8) ptr @_ZStlsISt11char_traitsIcEERSt13basic_ostreamIcT_ES5_PKc(ptr noundef nonnull align 8 dereferenceable(8) %call15, ptr noundef nonnull @.str.4)
          to label %invoke.cont23 unwind label %lpad6

invoke.cont23:                                    ; preds = %invoke.cont21
  invoke void @_Z14verbose_unlockv()
          to label %if.end40 unwind label %lpad6

lpad6:                                            ; preds = %invoke.cont33, %invoke.cont18, %invoke.cont45, %if.end40, %invoke.cont36, %invoke.cont28, %invoke.cont26, %if.else, %invoke.cont23, %invoke.cont21, %invoke.cont14, %invoke.cont12, %invoke.cont11, %if.then10, %if.then, %catch
  %9 = landingpad { ptr, i32 }
          cleanup
  br label %ehcleanup

if.else:                                          ; preds = %invoke.cont8
  %call27 = invoke noundef nonnull align 8 dereferenceable(8) ptr @_Z14verbose_streamv()
          to label %invoke.cont26 unwind label %lpad6

invoke.cont26:                                    ; preds = %if.else
  %call29 = invoke noundef nonnull align 8 dereferenceable(8) ptr @_ZStlsISt11char_traitsIcEERSt13basic_ostreamIcT_ES5_PKc(ptr noundef nonnull align 8 dereferenceable(8) %call27, ptr noundef nonnull @.str.3)
          to label %invoke.cont28 unwind label %lpad6

invoke.cont28:                                    ; preds = %invoke.cont26
  %vtable31 = load ptr, ptr %7, align 8
  %vfn32 = getelementptr inbounds i8, ptr %vtable31, i64 16
  %10 = load ptr, ptr %vfn32, align 8
  %call34 = invoke noundef ptr %10(ptr noundef nonnull align 8 dereferenceable(40) %7)
          to label %invoke.cont33 unwind label %lpad6

invoke.cont33:                                    ; preds = %invoke.cont28
  store ptr %call34, ptr %ref.tmp30, align 8
  %m_trim_nl.i8 = getelementptr inbounds i8, ptr %ref.tmp30, i64 8
  store i8 0, ptr %m_trim_nl.i8, align 8
  %m_indent.i9 = getelementptr inbounds i8, ptr %ref.tmp30, i64 12
  store i32 0, ptr %m_indent.i9, align 4
  invoke void @_ZNK7escaped7displayERSo(ptr noundef nonnull align 8 dereferenceable(16) %ref.tmp30, ptr noundef nonnull align 8 dereferenceable(8) %call29)
          to label %invoke.cont36 unwind label %lpad6

invoke.cont36:                                    ; preds = %invoke.cont33
  %call39 = invoke noundef nonnull align 8 dereferenceable(8) ptr @_ZStlsISt11char_traitsIcEERSt13basic_ostreamIcT_ES5_PKc(ptr noundef nonnull align 8 dereferenceable(8) %call29, ptr noundef nonnull @.str.4)
          to label %if.end40 unwind label %lpad6

if.end40:                                         ; preds = %invoke.cont23, %invoke.cont36, %invoke.cont7
  %vtable41 = load ptr, ptr %t, align 8
  %vfn42 = getelementptr inbounds i8, ptr %vtable41, i64 136
  %11 = load ptr, ptr %vfn42, align 8
  invoke void %11(ptr noundef nonnull align 8 dereferenceable(12) %t)
          to label %invoke.cont43 unwind label %lpad6

invoke.cont43:                                    ; preds = %if.end40
  %exception = call ptr @__cxa_allocate_exception(i64 40) #14
  store ptr getelementptr inbounds ({ [6 x ptr] }, ptr @_ZTV16tactic_exception, i64 0, i32 0, i64 2), ptr %exception, align 8
  %m_msg.i = getelementptr inbounds i8, ptr %exception, i64 8
  %m_msg2.i = getelementptr inbounds i8, ptr %7, i64 8
  invoke void @_ZNSt7__cxx1112basic_stringIcSt11char_traitsIcESaIcEEC1ERKS4_(ptr noundef nonnull align 8 dereferenceable(32) %m_msg.i, ptr noundef nonnull align 8 dereferenceable(32) %m_msg2.i)
          to label %invoke.cont45 unwind label %lpad44

invoke.cont45:                                    ; preds = %invoke.cont43
  invoke void @__cxa_throw(ptr nonnull %exception, ptr nonnull @_ZTI16tactic_exception, ptr nonnull @_ZN16tactic_exceptionD2Ev) #16
          to label %unreachable unwind label %lpad6

lpad44:                                           ; preds = %invoke.cont43
  %12 = landingpad { ptr, i32 }
          cleanup
  call void @__cxa_free_exception(ptr nonnull %exception) #14
  br label %ehcleanup

ehcleanup:                                        ; preds = %lpad44, %lpad6
  %.pn = phi { ptr, i32 } [ %9, %lpad6 ], [ %12, %lpad44 ]
  invoke void @__cxa_end_catch()
          to label %eh.resume unwind label %terminate.lpad

try.cont:                                         ; preds = %invoke.cont
  ret void

eh.resume:                                        ; preds = %ehcleanup, %lpad
  %lpad.val49.merged = phi { ptr, i32 } [ %.pn, %ehcleanup ], [ %3, %lpad ]
  resume { ptr, i32 } %lpad.val49.merged

terminate.lpad:                                   ; preds = %ehcleanup
  %13 = landingpad { ptr, i32 }
          catch ptr null
  %14 = extractvalue { ptr, i32 } %13, 0
  call void @__clang_call_terminate(ptr %14) #15
  unreachable

unreachable:                                      ; preds = %invoke.cont45
  unreachable
}